; ModuleID = '15/624.c'
source_filename = "15/624.c"
target datalayout = "e-m:e-p270:32:32-p271:32:32-p272:64:64-i64:64-f80:128-n8:16:32:64-S128"
target triple = "x86_64-pc-linux-gnu"

@.str = private unnamed_addr constant [3 x i8] c"%d\00", align 1
@.str.1 = private unnamed_addr constant [4 x i8] c"%d\0A\00", align 1

; Function Attrs: noinline nounwind uwtable
define dso_local i32 @main() #0 {
  %1 = alloca i32, align 4
  %2 = alloca i32, align 4
  %3 = alloca i32, align 4
  %4 = alloca i32, align 4
  %5 = alloca i32, align 4
  %6 = alloca i32, align 4
  %7 = alloca i32, align 4
  store i32 0, i32* %1, align 4
  store i32 0, i32* %2, align 4
  store i32 0, i32* %3, align 4
  store i32 0, i32* %4, align 4
  store i32 0, i32* %5, align 4
  store i32 0, i32* %6, align 4
  store i32 0, i32* %7, align 4
  %8 = call i32 (i8*, ...) @__isoc99_scanf(i8* getelementptr inbounds ([3 x i8], [3 x i8]* @.str, i64 0, i64 0), i32* %2)
  store i32 0, i32* %5, align 4
  br label %9

9:                                                ; preds = %31, %0
  %10 = load i32, i32* %5, align 4
  %11 = load i32, i32* %2, align 4
  %12 = load i32, i32* %2, align 4
  %13 = mul nsw i32 %11, %12
  %14 = icmp slt i32 %10, %13
  br i1 %14, label %15, label %34

15:                                               ; preds = %9
  %16 = call i32 (i8*, ...) @__isoc99_scanf(i8* getelementptr inbounds ([3 x i8], [3 x i8]* @.str, i64 0, i64 0), i32* %6)
  %17 = load i32, i32* %3, align 4
  %18 = icmp ne i32 %17, 0
  br i1 %18, label %24, label %19

19:                                               ; preds = %15
  %20 = load i32, i32* %6, align 4
  %21 = icmp ne i32 %20, 0
  br i1 %21, label %24, label %22

22:                                               ; preds = %19
  %23 = load i32, i32* %5, align 4
  store i32 %23, i32* %3, align 4
  br label %30

24:                                               ; preds = %19, %15
  %25 = load i32, i32* %6, align 4
  %26 = icmp ne i32 %25, 0
  br i1 %26, label %29, label %27

27:                                               ; preds = %24
  %28 = load i32, i32* %5, align 4
  store i32 %28, i32* %4, align 4
  br label %29

29:                                               ; preds = %27, %24
  br label %30

30:                                               ; preds = %29, %22
  br label %31

31:                                               ; preds = %30
  %32 = load i32, i32* %5, align 4
  %33 = add nsw i32 %32, 1
  store i32 %33, i32* %5, align 4
  br label %9

34:                                               ; preds = %9
  %35 = load i32, i32* %3, align 4
  %36 = add nsw i32 %35, 1
  store i32 %36, i32* %3, align 4
  %37 = load i32, i32* %4, align 4
  %38 = add nsw i32 %37, 1
  store i32 %38, i32* %4, align 4
  %39 = load i32, i32* %4, align 4
  %40 = load i32, i32* %2, align 4
  %41 = call i32 @col(i32 %39, i32 %40)
  %42 = load i32, i32* %3, align 4
  %43 = load i32, i32* %2, align 4
  %44 = call i32 @col(i32 %42, i32 %43)
  %45 = sub nsw i32 %41, %44
  %46 = sub nsw i32 %45, 1
  %47 = load i32, i32* %4, align 4
  %48 = load i32, i32* %2, align 4
  %49 = call i32 @row(i32 %47, i32 %48)
  %50 = load i32, i32* %3, align 4
  %51 = load i32, i32* %2, align 4
  %52 = call i32 @row(i32 %50, i32 %51)
  %53 = sub nsw i32 %49, %52
  %54 = sub nsw i32 %53, 1
  %55 = mul nsw i32 %46, %54
  store i32 %55, i32* %7, align 4
  %56 = load i32, i32* %7, align 4
  %57 = call i32 (i8*, ...) @printf(i8* getelementptr inbounds ([4 x i8], [4 x i8]* @.str.1, i64 0, i64 0), i32 %56)
  ret i32 0
}

declare dso_local i32 @__isoc99_scanf(i8*, ...) #1

; Function Attrs: noinline nounwind uwtable
define dso_local i32 @col(i32 %0, i32 %1) #0 {
  %3 = alloca i32, align 4
  %4 = alloca i32, align 4
  store i32 %0, i32* %3, align 4
  store i32 %1, i32* %4, align 4
  %5 = load i32, i32* %3, align 4
  %6 = load i32, i32* %4, align 4
  %7 = srem i32 %5, %6
  ret i32 %7
}

; Function Attrs: noinline nounwind uwtable
define dso_local i32 @row(i32 %0, i32 %1) #0 {
  %3 = alloca i32, align 4
  %4 = alloca i32, align 4
  store i32 %0, i32* %3, align 4
  store i32 %1, i32* %4, align 4
  %5 = load i32, i32* %3, align 4
  %6 = load i32, i32* %3, align 4
  %7 = load i32, i32* %4, align 4
  %8 = srem i32 %6, %7
  %9 = sub nsw i32 %5, %8
  %10 = load i32, i32* %4, align 4
  %11 = sdiv i32 %9, %10
  %12 = add nsw i32 %11, 1
  ret i32 %12
}

declare dso_local i32 @printf(i8*, ...) #1


!llvm.module.flags = !{!0}
!llvm.ident = !{!1}

!0 = !{i32 1, !"wchar_size", i32 4}
!1 = !{!"clang version 10.0.0-4ubuntu1 "}
