; ModuleID = 'source-C-CXX/14/624.c'
source_filename = "source-C-CXX/14/624.c"
target datalayout = "e-m:e-p270:32:32-p271:32:32-p272:64:64-i64:64-f80:128-n8:16:32:64-S128"
target triple = "x86_64-pc-linux-gnu"

@.str = private unnamed_addr constant [3 x i8] c"%d\00", align 1
@.str.1 = private unnamed_addr constant [4 x i8] c"%d\0A\00", align 1

; Function Attrs: nofree nounwind sspstrong uwtable
define dso_local i32 @main() local_unnamed_addr #0 {
  %1 = alloca i32, align 4
  %2 = alloca i32, align 4
  %3 = bitcast i32* %1 to i8*
  call void @llvm.lifetime.start.p0i8(i64 4, i8* nonnull %3) #4
  store i32 0, i32* %1, align 4, !tbaa !5
  %4 = bitcast i32* %2 to i8*
  call void @llvm.lifetime.start.p0i8(i64 4, i8* nonnull %4) #4
  store i32 0, i32* %2, align 4, !tbaa !5
  %5 = call i32 (i8*, ...) @__isoc99_scanf(i8* getelementptr inbounds ([3 x i8], [3 x i8]* @.str, i64 0, i64 0), i32* nonnull %1)
  %6 = load i32, i32* %1, align 4, !tbaa !5
  %7 = mul nsw i32 %6, %6
  %8 = icmp eq i32 %7, 0
  br i1 %8, label %28, label %9

9:                                                ; preds = %0, %9
  %10 = phi i32 [ %21, %9 ], [ 0, %0 ]
  %11 = phi i32 [ %20, %9 ], [ 0, %0 ]
  %12 = phi i32 [ %19, %9 ], [ 0, %0 ]
  %13 = call i32 (i8*, ...) @__isoc99_scanf(i8* getelementptr inbounds ([3 x i8], [3 x i8]* @.str, i64 0, i64 0), i32* nonnull %2)
  %14 = icmp ne i32 %12, 0
  %15 = load i32, i32* %2, align 4
  %16 = icmp ne i32 %15, 0
  %17 = select i1 %14, i1 true, i1 %16
  %18 = select i1 %16, i32 %11, i32 %10
  %19 = select i1 %17, i32 %12, i32 %10
  %20 = select i1 %17, i32 %18, i32 %11
  %21 = add nuw nsw i32 %10, 1
  %22 = load i32, i32* %1, align 4, !tbaa !5
  %23 = mul nsw i32 %22, %22
  %24 = icmp ult i32 %21, %23
  br i1 %24, label %9, label %25, !llvm.loop !9

25:                                               ; preds = %9
  %26 = add i32 %19, 1
  %27 = add i32 %20, 1
  br label %28

28:                                               ; preds = %25, %0
  %29 = phi i32 [ 1, %0 ], [ %26, %25 ]
  %30 = phi i32 [ 1, %0 ], [ %27, %25 ]
  %31 = phi i32 [ %6, %0 ], [ %22, %25 ]
  %32 = srem i32 %30, %31
  %33 = srem i32 %29, %31
  %34 = xor i32 %33, -1
  %35 = add i32 %32, %34
  %36 = sdiv i32 %30, %31
  %37 = sdiv i32 %29, %31
  %38 = xor i32 %37, -1
  %39 = add i32 %36, %38
  %40 = mul nsw i32 %39, %35
  %41 = call i32 (i8*, ...) @printf(i8* nonnull dereferenceable(1) getelementptr inbounds ([4 x i8], [4 x i8]* @.str.1, i64 0, i64 0), i32 %40)
  call void @llvm.lifetime.end.p0i8(i64 4, i8* nonnull %4) #4
  call void @llvm.lifetime.end.p0i8(i64 4, i8* nonnull %3) #4
  ret i32 0
}

; Function Attrs: argmemonly mustprogress nofree nosync nounwind willreturn
declare void @llvm.lifetime.start.p0i8(i64 immarg, i8* nocapture) #1

; Function Attrs: nofree nounwind
declare noundef i32 @__isoc99_scanf(i8* nocapture noundef readonly, ...) local_unnamed_addr #2

; Function Attrs: mustprogress nofree norecurse nosync nounwind readnone sspstrong uwtable willreturn
define dso_local i32 @col(i32 %0, i32 %1) local_unnamed_addr #3 {
  %3 = srem i32 %0, %1
  ret i32 %3
}

; Function Attrs: mustprogress nofree norecurse nosync nounwind readnone sspstrong uwtable willreturn
define dso_local i32 @row(i32 %0, i32 %1) local_unnamed_addr #3 {
  %3 = sdiv i32 %0, %1
  %4 = add nsw i32 %3, 1
  ret i32 %4
}

; Function Attrs: nofree nounwind
declare noundef i32 @printf(i8* nocapture noundef readonly, ...) local_unnamed_addr #2

; Function Attrs: argmemonly mustprogress nofree nosync nounwind willreturn
declare void @llvm.lifetime.end.p0i8(i64 immarg, i8* nocapture) #1


!llvm.module.flags = !{!0, !1, !2, !3}
!llvm.ident = !{!4}

!0 = !{i32 1, !"wchar_size", i32 4}
!1 = !{i32 7, !"PIC Level", i32 2}
!2 = !{i32 7, !"PIE Level", i32 2}
!3 = !{i32 7, !"uwtable", i32 1}
!4 = !{!"clang version 13.0.0"}
!5 = !{!6, !6, i64 0}
!6 = !{!"int", !7, i64 0}
!7 = !{!"omnipotent char", !8, i64 0}
!8 = !{!"Simple C/C++ TBAA"}
!9 = distinct !{!9, !10}
!10 = !{!"llvm.loop.mustprogress"}
